; Function Attrs: mustprogress uwtable
define void @_ZN3net10SpdyFramer28UpdateHeaderEncoderTableSizeEj(ptr noundef nonnull align 8 captures(none) dereferenceable(259) %0, i32 noundef %1) local_unnamed_addr #0 align 2 personality ptr @__gxx_personality_v0 {
  %3 = getelementptr inbounds nuw i8, ptr %0, i64 160
  %4 = load ptr, ptr %3, align 8, !tbaa !104
  %5 = icmp eq ptr %4, null
  br i1 %5, label %6, label %_ZN3net10SpdyFramer15GetHpackEncoderEv.exit

6:                                                ; preds = %2
  %7 = tail call noalias noundef nonnull dereferenceable(352) ptr @_Znwm(i64 noundef 352) #29
  %8 = invoke noundef nonnull align 8 dereferenceable(100) ptr @_ZN3net23ObtainHpackHuffmanTableEv()
          to label %9 unwind label %12

9:                                                ; preds = %6
  invoke void @_ZN3net12HpackEncoderC1ERKNS_17HpackHuffmanTableE(ptr noundef nonnull align 8 dereferenceable(346) %7, ptr noundef nonnull align 8 dereferenceable(100) %8)
          to label %10 unwind label %12

10:                                               ; preds = %9
  %11 = load ptr, ptr %3, align 8, !tbaa !104
  store ptr %7, ptr %3, align 8, !tbaa !104
  %.not.i.i.i = icmp eq ptr %11, null
  br i1 %.not.i.i.i, label %_ZN3net10SpdyFramer15GetHpackEncoderEv.exit, label %_ZNKSt14default_deleteIN3net12HpackEncoderEEclEPS1_.exit.i.i.i

_ZNKSt14default_deleteIN3net12HpackEncoderEEclEPS1_.exit.i.i.i: ; preds = %10
  tail call void @_ZN3net12HpackEncoderD1Ev(ptr noundef nonnull align 8 dereferenceable(346) %11) #25
  tail call void @_ZdlPv(ptr noundef nonnull %11) #26
  %.pre.i = load ptr, ptr %3, align 8, !tbaa !104
  br label %_ZN3net10SpdyFramer15GetHpackEncoderEv.exit

12:                                               ; preds = %9, %6
  %13 = landingpad { ptr, i32 }
          cleanup
  tail call void @_ZdlPv(ptr noundef nonnull %7) #26
  resume { ptr, i32 } %13

_ZN3net10SpdyFramer15GetHpackEncoderEv.exit:      ; preds = %2, %10, %_ZNKSt14default_deleteIN3net12HpackEncoderEEclEPS1_.exit.i.i.i
  %14 = phi ptr [ %.pre.i, %_ZNKSt14default_deleteIN3net12HpackEncoderEEclEPS1_.exit.i.i.i ], [ %7, %10 ], [ %4, %2 ]
  %15 = zext i32 %1 to i64
  tail call void @_ZN3net12HpackEncoder27ApplyHeaderTableSizeSettingEm(ptr noundef nonnull align 8 dereferenceable(346) %14, i64 noundef %15)
  ret void
}